; Function Attrs: mustprogress nofree norecurse nosync nounwind willreturn memory(read, inaccessiblemem: none) uwtable
define i32 @lv_display_get_offset_x(ptr noundef readonly %0) local_unnamed_addr #6 {
  %2 = icmp eq ptr %0, null
  br i1 %2, label %3, label %.thread

3:                                                ; preds = %1
  %4 = load ptr, ptr getelementptr inbounds nuw (i8, ptr @lv_global, i64 40), align 8, !tbaa !33
  %5 = icmp eq ptr %4, null
  br i1 %5, label %32, label %.thread

.thread:                                          ; preds = %1, %3
  %.016 = phi ptr [ %4, %3 ], [ %0, %1 ]
  %6 = getelementptr inbounds nuw i8, ptr %.016, i64 888
  %7 = load i8, ptr %6, align 8
  %8 = and i8 %7, 7
  switch i8 %8, label %29 [
    i8 1, label %9
    i8 2, label %.thread.i
    i8 3, label %.thread.i11
  ]

9:                                                ; preds = %.thread
  %10 = getelementptr inbounds nuw i8, ptr %.016, i64 20
  %11 = load i32, ptr %10, align 4, !tbaa !20
  br label %32

.thread.i:                                        ; preds = %.thread
  %12 = getelementptr inbounds nuw i8, ptr %.016, i64 8
  %13 = load i32, ptr %12, align 8, !tbaa !17
  %14 = icmp sgt i32 %13, 0
  br i1 %14, label %lv_display_get_physical_horizontal_resolution.exit, label %15

15:                                               ; preds = %.thread.i
  %16 = load i32, ptr %.016, align 8, !tbaa !3
  br label %lv_display_get_physical_horizontal_resolution.exit

lv_display_get_physical_horizontal_resolution.exit: ; preds = %.thread.i, %15
  %.09.i = phi i32 [ %16, %15 ], [ %13, %.thread.i ]
  %17 = getelementptr inbounds nuw i8, ptr %.016, i64 16
  %18 = load i32, ptr %17, align 8, !tbaa !19
  %19 = sub nsw i32 %.09.i, %18
  br label %32

.thread.i11:                                      ; preds = %.thread
  %20 = getelementptr inbounds nuw i8, ptr %.016, i64 12
  %21 = load i32, ptr %20, align 4, !tbaa !18
  %22 = icmp sgt i32 %21, 0
  br i1 %22, label %lv_display_get_physical_horizontal_resolution.exit14, label %23

23:                                               ; preds = %.thread.i11
  %24 = getelementptr inbounds nuw i8, ptr %.016, i64 4
  %25 = load i32, ptr %24, align 4, !tbaa !16
  br label %lv_display_get_physical_horizontal_resolution.exit14

lv_display_get_physical_horizontal_resolution.exit14: ; preds = %.thread.i11, %23
  %.09.i13 = phi i32 [ %25, %23 ], [ %21, %.thread.i11 ]
  %26 = getelementptr inbounds nuw i8, ptr %.016, i64 20
  %27 = load i32, ptr %26, align 4, !tbaa !20
  %28 = sub nsw i32 %.09.i13, %27
  br label %32

29:                                               ; preds = %.thread
  %30 = getelementptr inbounds nuw i8, ptr %.016, i64 16
  %31 = load i32, ptr %30, align 8, !tbaa !19
  br label %32

32:                                               ; preds = %3, %29, %lv_display_get_physical_horizontal_resolution.exit14, %lv_display_get_physical_horizontal_resolution.exit, %9
  %.09 = phi i32 [ %31, %29 ], [ %28, %lv_display_get_physical_horizontal_resolution.exit14 ], [ %19, %lv_display_get_physical_horizontal_resolution.exit ], [ %11, %9 ], [ 0, %3 ]
  ret i32 %.09
}